; ModuleID = '35/1445.c'
source_filename = "35/1445.c"
target datalayout = "e-m:e-p270:32:32-p271:32:32-p272:64:64-i64:64-f80:128-n8:16:32:64-S128"
target triple = "x86_64-pc-linux-gnu"

@.str = private unnamed_addr constant [7 x i8] c"%d%c%d\00", align 1
@.str.1 = private unnamed_addr constant [3 x i8] c"%d\00", align 1
@.str.2 = private unnamed_addr constant [7 x i8] c"%d+%d\0A\00", align 1
@.str.3 = private unnamed_addr constant [3 x i8] c"No\00", align 1

; Function Attrs: noinline nounwind uwtable
define dso_local i32 @main() #0 {
  %1 = alloca i32, align 4
  %2 = alloca i32, align 4
  %3 = alloca i32, align 4
  %4 = alloca i8, align 1
  %5 = alloca i32, align 4
  %6 = alloca i32, align 4
  %7 = alloca i32, align 4
  %8 = alloca [8 x i32], align 16
  %9 = alloca i32, align 4
  %10 = alloca [8 x [8 x i32]], align 16
  %11 = alloca i32, align 4
  store i32 0, i32* %1, align 4
  %12 = call i32 (i8*, ...) @__isoc99_scanf(i8* getelementptr inbounds ([7 x i8], [7 x i8]* @.str, i64 0, i64 0), i32* %2, i8* %4, i32* %3)
  store i32 0, i32* %11, align 4
  store i32 0, i32* %5, align 4
  br label %13

13:                                               ; preds = %66, %0
  %14 = load i32, i32* %5, align 4
  %15 = load i32, i32* %2, align 4
  %16 = icmp slt i32 %14, %15
  br i1 %16, label %17, label %69

17:                                               ; preds = %13
  store i32 0, i32* %6, align 4
  br label %18

18:                                               ; preds = %62, %17
  %19 = load i32, i32* %6, align 4
  %20 = load i32, i32* %3, align 4
  %21 = icmp slt i32 %19, %20
  br i1 %21, label %22, label %65

22:                                               ; preds = %18
  %23 = load i32, i32* %5, align 4
  %24 = sext i32 %23 to i64
  %25 = getelementptr inbounds [8 x [8 x i32]], [8 x [8 x i32]]* %10, i64 0, i64 %24
  %26 = load i32, i32* %6, align 4
  %27 = sext i32 %26 to i64
  %28 = getelementptr inbounds [8 x i32], [8 x i32]* %25, i64 0, i64 %27
  %29 = call i32 (i8*, ...) @__isoc99_scanf(i8* getelementptr inbounds ([3 x i8], [3 x i8]* @.str.1, i64 0, i64 0), i32* %28)
  %30 = load i32, i32* %6, align 4
  %31 = icmp eq i32 %30, 0
  br i1 %31, label %32, label %37

32:                                               ; preds = %22
  %33 = load i32, i32* %6, align 4
  %34 = load i32, i32* %5, align 4
  %35 = sext i32 %34 to i64
  %36 = getelementptr inbounds [8 x i32], [8 x i32]* %8, i64 0, i64 %35
  store i32 %33, i32* %36, align 4
  br label %37

37:                                               ; preds = %32, %22
  %38 = load i32, i32* %5, align 4
  %39 = sext i32 %38 to i64
  %40 = getelementptr inbounds [8 x [8 x i32]], [8 x [8 x i32]]* %10, i64 0, i64 %39
  %41 = load i32, i32* %6, align 4
  %42 = sext i32 %41 to i64
  %43 = getelementptr inbounds [8 x i32], [8 x i32]* %40, i64 0, i64 %42
  %44 = load i32, i32* %43, align 4
  %45 = load i32, i32* %5, align 4
  %46 = sext i32 %45 to i64
  %47 = getelementptr inbounds [8 x [8 x i32]], [8 x [8 x i32]]* %10, i64 0, i64 %46
  %48 = load i32, i32* %5, align 4
  %49 = sext i32 %48 to i64
  %50 = getelementptr inbounds [8 x i32], [8 x i32]* %8, i64 0, i64 %49
  %51 = load i32, i32* %50, align 4
  %52 = sext i32 %51 to i64
  %53 = getelementptr inbounds [8 x i32], [8 x i32]* %47, i64 0, i64 %52
  %54 = load i32, i32* %53, align 4
  %55 = icmp sgt i32 %44, %54
  br i1 %55, label %56, label %61

56:                                               ; preds = %37
  %57 = load i32, i32* %6, align 4
  %58 = load i32, i32* %5, align 4
  %59 = sext i32 %58 to i64
  %60 = getelementptr inbounds [8 x i32], [8 x i32]* %8, i64 0, i64 %59
  store i32 %57, i32* %60, align 4
  br label %61

61:                                               ; preds = %56, %37
  br label %62

62:                                               ; preds = %61
  %63 = load i32, i32* %6, align 4
  %64 = add nsw i32 %63, 1
  store i32 %64, i32* %6, align 4
  br label %18

65:                                               ; preds = %18
  br label %66

66:                                               ; preds = %65
  %67 = load i32, i32* %5, align 4
  %68 = add nsw i32 %67, 1
  store i32 %68, i32* %5, align 4
  br label %13

69:                                               ; preds = %13
  store i32 0, i32* %7, align 4
  br label %70

70:                                               ; preds = %126, %69
  %71 = load i32, i32* %7, align 4
  %72 = load i32, i32* %2, align 4
  %73 = icmp slt i32 %71, %72
  br i1 %73, label %74, label %129

74:                                               ; preds = %70
  store i32 0, i32* %9, align 4
  store i32 0, i32* %5, align 4
  br label %75

75:                                               ; preds = %109, %74
  %76 = load i32, i32* %5, align 4
  %77 = load i32, i32* %2, align 4
  %78 = icmp slt i32 %76, %77
  br i1 %78, label %79, label %112

79:                                               ; preds = %75
  %80 = load i32, i32* %5, align 4
  %81 = icmp eq i32 %80, 0
  br i1 %81, label %82, label %84

82:                                               ; preds = %79
  %83 = load i32, i32* %5, align 4
  store i32 %83, i32* %9, align 4
  br label %84

84:                                               ; preds = %82, %79
  %85 = load i32, i32* %5, align 4
  %86 = sext i32 %85 to i64
  %87 = getelementptr inbounds [8 x [8 x i32]], [8 x [8 x i32]]* %10, i64 0, i64 %86
  %88 = load i32, i32* %7, align 4
  %89 = sext i32 %88 to i64
  %90 = getelementptr inbounds [8 x i32], [8 x i32]* %8, i64 0, i64 %89
  %91 = load i32, i32* %90, align 4
  %92 = sext i32 %91 to i64
  %93 = getelementptr inbounds [8 x i32], [8 x i32]* %87, i64 0, i64 %92
  %94 = load i32, i32* %93, align 4
  %95 = load i32, i32* %9, align 4
  %96 = sext i32 %95 to i64
  %97 = getelementptr inbounds [8 x [8 x i32]], [8 x [8 x i32]]* %10, i64 0, i64 %96
  %98 = load i32, i32* %7, align 4
  %99 = sext i32 %98 to i64
  %100 = getelementptr inbounds [8 x i32], [8 x i32]* %8, i64 0, i64 %99
  %101 = load i32, i32* %100, align 4
  %102 = sext i32 %101 to i64
  %103 = getelementptr inbounds [8 x i32], [8 x i32]* %97, i64 0, i64 %102
  %104 = load i32, i32* %103, align 4
  %105 = icmp slt i32 %94, %104
  br i1 %105, label %106, label %108

106:                                              ; preds = %84
  %107 = load i32, i32* %5, align 4
  store i32 %107, i32* %9, align 4
  br label %108

108:                                              ; preds = %106, %84
  br label %109

109:                                              ; preds = %108
  %110 = load i32, i32* %5, align 4
  %111 = add nsw i32 %110, 1
  store i32 %111, i32* %5, align 4
  br label %75

112:                                              ; preds = %75
  %113 = load i32, i32* %9, align 4
  %114 = load i32, i32* %7, align 4
  %115 = icmp eq i32 %113, %114
  br i1 %115, label %116, label %125

116:                                              ; preds = %112
  %117 = load i32, i32* %9, align 4
  %118 = load i32, i32* %7, align 4
  %119 = sext i32 %118 to i64
  %120 = getelementptr inbounds [8 x i32], [8 x i32]* %8, i64 0, i64 %119
  %121 = load i32, i32* %120, align 4
  %122 = call i32 (i8*, ...) @printf(i8* getelementptr inbounds ([7 x i8], [7 x i8]* @.str.2, i64 0, i64 0), i32 %117, i32 %121)
  %123 = load i32, i32* %11, align 4
  %124 = add nsw i32 %123, 1
  store i32 %124, i32* %11, align 4
  br label %125

125:                                              ; preds = %116, %112
  br label %126

126:                                              ; preds = %125
  %127 = load i32, i32* %7, align 4
  %128 = add nsw i32 %127, 1
  store i32 %128, i32* %7, align 4
  br label %70

129:                                              ; preds = %70
  %130 = load i32, i32* %11, align 4
  %131 = icmp eq i32 %130, 0
  br i1 %131, label %132, label %134

132:                                              ; preds = %129
  %133 = call i32 (i8*, ...) @printf(i8* getelementptr inbounds ([3 x i8], [3 x i8]* @.str.3, i64 0, i64 0))
  br label %134

134:                                              ; preds = %132, %129
  ret i32 0
}

declare dso_local i32 @__isoc99_scanf(i8*, ...) #1

declare dso_local i32 @printf(i8*, ...) #1


!llvm.module.flags = !{!0}
!llvm.ident = !{!1}

!0 = !{i32 1, !"wchar_size", i32 4}
!1 = !{!"clang version 10.0.0-4ubuntu1 "}
